target datalayout = "e-m:e-p270:32:32-p271:32:32-p272:64:64-i64:64-i128:128-f80:128-n8:16:32:64-S128"
target triple = "x86_64-unknown-linux-gnu"

; Function Attrs: mustprogress nounwind uwtable
define void @_ZN5arrow7compute8internal17BooleanKeyEncoder10EncodeNullEPPh(ptr noundef nonnull align 8 dereferenceable(8) %this, ptr noundef %encoded_bytes) unnamed_addr #2 align 2 {
entry:
  %this.addr = alloca ptr, align 8
  %encoded_bytes.addr = alloca ptr, align 8
  %encoded_ptr = alloca ptr, align 8
  store ptr %this, ptr %this.addr, align 8
  store ptr %encoded_bytes, ptr %encoded_bytes.addr, align 8
  %0 = load ptr, ptr %encoded_bytes.addr, align 8
  store ptr %0, ptr %encoded_ptr, align 8
  %1 = load ptr, ptr %encoded_ptr, align 8
  %2 = load ptr, ptr %1, align 8
  %incdec.ptr = getelementptr inbounds i8, ptr %2, i32 1
  store ptr %incdec.ptr, ptr %1, align 8
  store i8 1, ptr %2, align 1
  %3 = load ptr, ptr %encoded_ptr, align 8
  %4 = load ptr, ptr %3, align 8
  %incdec.ptr2 = getelementptr inbounds i8, ptr %4, i32 1
  store ptr %incdec.ptr2, ptr %3, align 8
  store i8 0, ptr %4, align 1
  ret void
}