; Function Attrs: mustprogress nofree norecurse nosync nounwind willreturn memory(write, argmem: readwrite, inaccessiblemem: none) uwtable
define void @_ZN5arrow7compute8internal17BooleanKeyEncoder10EncodeNullEPPh(ptr nocapture nonnull readnone align 8 %this, ptr nocapture noundef %encoded_bytes) unnamed_addr #5 align 2 {
entry:
  %0 = load ptr, ptr %encoded_bytes, align 8
  %incdec.ptr = getelementptr inbounds i8, ptr %0, i64 1
  store ptr %incdec.ptr, ptr %encoded_bytes, align 8
  store i8 1, ptr %0, align 1
  %1 = load ptr, ptr %encoded_bytes, align 8
  %incdec.ptr2 = getelementptr inbounds i8, ptr %1, i64 1
  store ptr %incdec.ptr2, ptr %encoded_bytes, align 8
  store i8 0, ptr %1, align 1
  ret void
}